target datalayout = "e-m:e-p270:32:32-p271:32:32-p272:64:64-i64:64-i128:128-f80:128-n8:16:32:64-S128"
target triple = "x86_64-pc-linux-gnu"

%struct.timeval = type { i64, i64 }
%struct.timezone = type { i32, i32 }

; Function Attrs: nounwind uwtable
define hidden i32 @SplashTime() #0 {
  %1 = alloca %struct.timeval, align 8
  %2 = alloca %struct.timezone, align 4
  %3 = alloca i64, align 8
  %4 = call i32 @gettimeofday(ptr noundef %1, ptr noundef %2) #7
  %5 = getelementptr inbounds %struct.timeval, ptr %1, i32 0, i32 0
  %6 = load i64, ptr %5, align 8
  %7 = mul i64 %6, 1000
  %8 = getelementptr inbounds %struct.timeval, ptr %1, i32 0, i32 1
  %9 = load i64, ptr %8, align 8
  %10 = udiv i64 %9, 1000
  %11 = add i64 %7, %10
  store i64 %11, ptr %3, align 8
  %12 = load i64, ptr %3, align 8
  %13 = trunc i64 %12 to i32
  ret i32 %13
}