; Function Attrs: nofree nounwind uwtable
define hidden i32 @SplashTime() local_unnamed_addr #7 {
  %1 = alloca %struct.timeval, align 8
  %2 = alloca %struct.timezone, align 4
  %3 = call i32 @gettimeofday(ptr noundef nonnull %1, ptr noundef nonnull %2) #16
  %4 = load i64, ptr %1, align 8
  %5 = mul i64 %4, 1000
  %6 = getelementptr inbounds i8, ptr %1, i64 8
  %7 = load i64, ptr %6, align 8
  %8 = udiv i64 %7, 1000
  %9 = add i64 %8, %5
  %10 = trunc i64 %9 to i32
  ret i32 %10
}